target datalayout = "e-m:e-p270:32:32-p271:32:32-p272:64:64-i64:64-i128:128-f80:128-n8:16:32:64-S128"
target triple = "x86_64-pc-linux-gnu"

%struct._Node = type { %union.anon.35 }
%union.anon.35 = type { %struct.BagNode }
%struct.BagNode = type { i32, i32, ptr, ptr, i32, %union.anon.37, i32, i32, i32, i32, i32 }
%union.anon.37 = type { %struct.anon.40 }
%struct.anon.40 = type { ptr, ptr }
%struct.anon.36 = type { i32, i32, ptr, ptr }
%struct.StrNode = type { i32, i32, ptr, ptr, ptr, i32, [24 x i8], i32 }

; Function Attrs: nounwind uwtable
define internal void @node_swap(ptr noundef %0, ptr noundef %1) #0 {
  %3 = alloca ptr, align 8
  %4 = alloca ptr, align 8
  %5 = alloca %struct._Node, align 8
  %6 = alloca ptr, align 8
  %7 = alloca i32, align 4
  %8 = alloca ptr, align 8
  %9 = alloca i32, align 4
  store ptr %0, ptr %3, align 8, !tbaa !47
  store ptr %1, ptr %4, align 8, !tbaa !47
  call void @llvm.lifetime.start.p0(i64 72, ptr %5) #9
  %10 = load ptr, ptr %3, align 8, !tbaa !47
  call void @llvm.memcpy.p0.p0.i64(ptr align 8 %5, ptr align 8 %10, i64 72, i1 false), !tbaa.struct !237
  %11 = load ptr, ptr %3, align 8, !tbaa !47
  %12 = load ptr, ptr %4, align 8, !tbaa !47
  call void @llvm.memcpy.p0.p0.i64(ptr align 8 %11, ptr align 8 %12, i64 72, i1 false), !tbaa.struct !237
  %13 = load ptr, ptr %4, align 8, !tbaa !47
  call void @llvm.memcpy.p0.p0.i64(ptr align 8 %13, ptr align 8 %5, i64 72, i1 false), !tbaa.struct !237
  %14 = load ptr, ptr %3, align 8, !tbaa !47
  %15 = getelementptr inbounds nuw %struct._Node, ptr %14, i32 0, i32 0
  %16 = getelementptr inbounds nuw %struct.anon.36, ptr %15, i32 0, i32 0
  %17 = load i32, ptr %16, align 8, !tbaa !32
  %18 = icmp eq i32 %17, 0
  br i1 %18, label %19, label %51

19:                                               ; preds = %2
  call void @llvm.lifetime.start.p0(i64 8, ptr %6) #9
  %20 = load ptr, ptr %3, align 8, !tbaa !47
  %21 = getelementptr inbounds nuw %struct._Node, ptr %20, i32 0, i32 0
  store ptr %21, ptr %6, align 8, !tbaa !15
  %22 = load ptr, ptr %6, align 8, !tbaa !15
  %23 = getelementptr inbounds nuw %struct.StrNode, ptr %22, i32 0, i32 7
  %24 = load i32, ptr %23, align 4, !tbaa !238
  %25 = icmp eq i32 %24, 0
  br i1 %25, label %26, label %50

26:                                               ; preds = %19
  call void @llvm.lifetime.start.p0(i64 4, ptr %7) #9
  %27 = load ptr, ptr %6, align 8, !tbaa !15
  %28 = getelementptr inbounds nuw %struct.StrNode, ptr %27, i32 0, i32 4
  %29 = load ptr, ptr %28, align 8, !tbaa !165
  %30 = load ptr, ptr %6, align 8, !tbaa !15
  %31 = getelementptr inbounds nuw %struct.StrNode, ptr %30, i32 0, i32 3
  %32 = load ptr, ptr %31, align 8, !tbaa !163
  %33 = ptrtoint ptr %29 to i64
  %34 = ptrtoint ptr %32 to i64
  %35 = sub i64 %33, %34
  %36 = trunc i64 %35 to i32
  store i32 %36, ptr %7, align 4, !tbaa !4
  %37 = load ptr, ptr %6, align 8, !tbaa !15
  %38 = getelementptr inbounds nuw %struct.StrNode, ptr %37, i32 0, i32 6
  %39 = getelementptr inbounds [24 x i8], ptr %38, i64 0, i64 0
  %40 = load ptr, ptr %6, align 8, !tbaa !15
  %41 = getelementptr inbounds nuw %struct.StrNode, ptr %40, i32 0, i32 3
  store ptr %39, ptr %41, align 8, !tbaa !163
  %42 = load ptr, ptr %6, align 8, !tbaa !15
  %43 = getelementptr inbounds nuw %struct.StrNode, ptr %42, i32 0, i32 3
  %44 = load ptr, ptr %43, align 8, !tbaa !163
  %45 = load i32, ptr %7, align 4, !tbaa !4
  %46 = sext i32 %45 to i64
  %47 = getelementptr inbounds i8, ptr %44, i64 %46
  %48 = load ptr, ptr %6, align 8, !tbaa !15
  %49 = getelementptr inbounds nuw %struct.StrNode, ptr %48, i32 0, i32 4
  store ptr %47, ptr %49, align 8, !tbaa !165
  call void @llvm.lifetime.end.p0(i64 4, ptr %7) #9
  br label %50

50:                                               ; preds = %26, %19
  call void @llvm.lifetime.end.p0(i64 8, ptr %6) #9
  br label %51

51:                                               ; preds = %50, %2
  %52 = load ptr, ptr %4, align 8, !tbaa !47
  %53 = getelementptr inbounds nuw %struct._Node, ptr %52, i32 0, i32 0
  %54 = getelementptr inbounds nuw %struct.anon.36, ptr %53, i32 0, i32 0
  %55 = load i32, ptr %54, align 8, !tbaa !32
  %56 = icmp eq i32 %55, 0
  br i1 %56, label %57, label %89

57:                                               ; preds = %51
  call void @llvm.lifetime.start.p0(i64 8, ptr %8) #9
  %58 = load ptr, ptr %4, align 8, !tbaa !47
  %59 = getelementptr inbounds nuw %struct._Node, ptr %58, i32 0, i32 0
  store ptr %59, ptr %8, align 8, !tbaa !15
  %60 = load ptr, ptr %8, align 8, !tbaa !15
  %61 = getelementptr inbounds nuw %struct.StrNode, ptr %60, i32 0, i32 7
  %62 = load i32, ptr %61, align 4, !tbaa !238
  %63 = icmp eq i32 %62, 0
  br i1 %63, label %64, label %88

64:                                               ; preds = %57
  call void @llvm.lifetime.start.p0(i64 4, ptr %9) #9
  %65 = load ptr, ptr %8, align 8, !tbaa !15
  %66 = getelementptr inbounds nuw %struct.StrNode, ptr %65, i32 0, i32 4
  %67 = load ptr, ptr %66, align 8, !tbaa !165
  %68 = load ptr, ptr %8, align 8, !tbaa !15
  %69 = getelementptr inbounds nuw %struct.StrNode, ptr %68, i32 0, i32 3
  %70 = load ptr, ptr %69, align 8, !tbaa !163
  %71 = ptrtoint ptr %67 to i64
  %72 = ptrtoint ptr %70 to i64
  %73 = sub i64 %71, %72
  %74 = trunc i64 %73 to i32
  store i32 %74, ptr %9, align 4, !tbaa !4
  %75 = load ptr, ptr %8, align 8, !tbaa !15
  %76 = getelementptr inbounds nuw %struct.StrNode, ptr %75, i32 0, i32 6
  %77 = getelementptr inbounds [24 x i8], ptr %76, i64 0, i64 0
  %78 = load ptr, ptr %8, align 8, !tbaa !15
  %79 = getelementptr inbounds nuw %struct.StrNode, ptr %78, i32 0, i32 3
  store ptr %77, ptr %79, align 8, !tbaa !163
  %80 = load ptr, ptr %8, align 8, !tbaa !15
  %81 = getelementptr inbounds nuw %struct.StrNode, ptr %80, i32 0, i32 3
  %82 = load ptr, ptr %81, align 8, !tbaa !163
  %83 = load i32, ptr %9, align 4, !tbaa !4
  %84 = sext i32 %83 to i64
  %85 = getelementptr inbounds i8, ptr %82, i64 %84
  %86 = load ptr, ptr %8, align 8, !tbaa !15
  %87 = getelementptr inbounds nuw %struct.StrNode, ptr %86, i32 0, i32 4
  store ptr %85, ptr %87, align 8, !tbaa !165
  call void @llvm.lifetime.end.p0(i64 4, ptr %9) #9
  br label %88

88:                                               ; preds = %64, %57
  call void @llvm.lifetime.end.p0(i64 8, ptr %8) #9
  br label %89

89:                                               ; preds = %88, %51
  call void @llvm.lifetime.end.p0(i64 72, ptr %5) #9
  ret void
}