; Function Attrs: mustprogress nofree norecurse nosync nounwind willreturn memory(argmem: readwrite) uwtable
define internal fastcc void @node_swap(ptr noundef %0, ptr noundef %1) unnamed_addr #19 {
  %.sroa.0 = alloca %struct.BagNode, align 8
  call void @llvm.lifetime.start.p0(i64 72, ptr nonnull %.sroa.0)
  call void @llvm.memcpy.p0.p0.i64(ptr noundef nonnull align 8 dereferenceable(72) %.sroa.0, ptr noundef nonnull align 8 dereferenceable(72) %0, i64 72, i1 false), !tbaa.struct !235
  tail call void @llvm.memcpy.p0.p0.i64(ptr noundef nonnull align 8 dereferenceable(72) %0, ptr noundef nonnull align 8 dereferenceable(72) %1, i64 72, i1 false), !tbaa.struct !235
  call void @llvm.memcpy.p0.p0.i64(ptr noundef nonnull align 8 dereferenceable(72) %1, ptr noundef nonnull align 8 dereferenceable(72) %.sroa.0, i64 72, i1 false), !tbaa.struct !235
  %3 = load i32, ptr %0, align 8, !tbaa !20
  %4 = icmp eq i32 %3, 0
  br i1 %4, label %5, label %20

5:                                                ; preds = %2
  %6 = getelementptr inbounds nuw i8, ptr %0, i64 60
  %7 = load i32, ptr %6, align 4, !tbaa !236
  %8 = icmp eq i32 %7, 0
  br i1 %8, label %9, label %20

9:                                                ; preds = %5
  %10 = getelementptr inbounds nuw i8, ptr %0, i64 24
  %11 = load ptr, ptr %10, align 8, !tbaa !117
  %12 = getelementptr inbounds nuw i8, ptr %0, i64 16
  %13 = load ptr, ptr %12, align 8, !tbaa !115
  %14 = ptrtoint ptr %11 to i64
  %15 = ptrtoint ptr %13 to i64
  %16 = sub i64 %14, %15
  %17 = getelementptr inbounds nuw i8, ptr %0, i64 36
  store ptr %17, ptr %12, align 8, !tbaa !115
  %sext = shl i64 %16, 32
  %18 = ashr exact i64 %sext, 32
  %19 = getelementptr inbounds i8, ptr %17, i64 %18
  store ptr %19, ptr %10, align 8, !tbaa !117
  br label %20

20:                                               ; preds = %5, %9, %2
  %21 = load i32, ptr %1, align 8, !tbaa !20
  %22 = icmp eq i32 %21, 0
  br i1 %22, label %23, label %38

23:                                               ; preds = %20
  %24 = getelementptr inbounds nuw i8, ptr %1, i64 60
  %25 = load i32, ptr %24, align 4, !tbaa !236
  %26 = icmp eq i32 %25, 0
  br i1 %26, label %27, label %38

27:                                               ; preds = %23
  %28 = getelementptr inbounds nuw i8, ptr %1, i64 24
  %29 = load ptr, ptr %28, align 8, !tbaa !117
  %30 = getelementptr inbounds nuw i8, ptr %1, i64 16
  %31 = load ptr, ptr %30, align 8, !tbaa !115
  %32 = ptrtoint ptr %29 to i64
  %33 = ptrtoint ptr %31 to i64
  %34 = sub i64 %32, %33
  %35 = getelementptr inbounds nuw i8, ptr %1, i64 36
  store ptr %35, ptr %30, align 8, !tbaa !115
  %sext23 = shl i64 %34, 32
  %36 = ashr exact i64 %sext23, 32
  %37 = getelementptr inbounds i8, ptr %35, i64 %36
  store ptr %37, ptr %28, align 8, !tbaa !117
  br label %38

38:                                               ; preds = %23, %27, %20
  call void @llvm.lifetime.end.p0(i64 72, ptr nonnull %.sroa.0)
  ret void
}